target datalayout = "e-m:e-p270:32:32-p271:32:32-p272:64:64-i64:64-i128:128-f80:128-n8:16:32:64-S128"
target triple = "x86_64-pc-linux-gnu"

%struct.dt_pthread_mutex_t = type { %union.pthread_mutex_t }
%union.pthread_mutex_t = type { %struct.__pthread_mutex_s }
%struct.__pthread_mutex_s = type { i32, i32, i32, i32, i32, i16, i16, %struct.__pthread_internal_list }
%struct.__pthread_internal_list = type { ptr, ptr }
%struct.dt_iop_module_t = type { i32, ptr, ptr, ptr, ptr, ptr, ptr, ptr, ptr, ptr, ptr, ptr, ptr, ptr, ptr, ptr, ptr, ptr, ptr, ptr, ptr, ptr, ptr, ptr, ptr, ptr, ptr, ptr, ptr, ptr, ptr, ptr, ptr, ptr, ptr, ptr, ptr, ptr, ptr, ptr, ptr, ptr, ptr, ptr, ptr, ptr, ptr, ptr, ptr, ptr, ptr, ptr, ptr, ptr, ptr, ptr, ptr, [20 x i8], i32, i32, i32, i32, i32, i32, i32, [8 x i8], [4 x float], [4 x float], [4 x float], [4 x float], [4 x float], [4 x float], ptr, %struct.dt_dev_histogram_stats_t, [4 x i32], i32, i32, ptr, i32, i32, ptr, ptr, i32, ptr, %struct.dt_pthread_mutex_t, ptr, ptr, ptr, ptr, %struct.anon.1, ptr, ptr, ptr, ptr, ptr, ptr, ptr, i32, ptr, ptr, ptr, ptr, ptr, ptr, ptr, i32, ptr, i32, [128 x i8], i32, ptr, ptr, i32, [12 x i8] }
%struct.dt_dev_histogram_stats_t = type { i32, i64, i32, i32 }
%struct.anon.1 = type { %struct.anon.2, %struct.anon.3 }
%struct.anon.2 = type { ptr, ptr }
%struct.anon.3 = type { ptr, i32 }
%struct.dt_dev_pixelpipe_iop_t = type { ptr, ptr, ptr, ptr, i32, i32, %struct.dt_dev_histogram_collection_params_t, ptr, %struct.dt_dev_histogram_stats_t, [4 x i32], float, i32, i32, i64, i32, i32, %struct.dt_iop_roi_t, %struct.dt_iop_roi_t, %struct.dt_iop_roi_t, %struct.dt_iop_roi_t, i32, i32, %struct.dt_iop_buffer_dsc_t, %struct.dt_iop_buffer_dsc_t, ptr, [8 x i8] }
%struct.dt_dev_histogram_collection_params_t = type { ptr, i32 }
%struct.dt_iop_roi_t = type { i32, i32, i32, i32, float }
%struct.dt_iop_buffer_dsc_t = type { i32, i32, i32, [6 x [6 x i8]], %struct.anon, [12 x i8], %struct.anon.0, [4 x float], i32, [12 x i8] }
%struct.anon = type { i16, i16 }
%struct.anon.0 = type { i32, [12 x i8], [4 x float] }
%struct.dt_develop_t = type { i32, i32, i32, ptr, double, double, i32, i32, i32, i32, i32, double, i32, i32, i32, ptr, ptr, [8 x i8], %struct.dt_image_t, i32, i32, %struct.dt_pthread_mutex_t, i32, ptr, i32, ptr, i32, ptr, ptr, i32, ptr, ptr, ptr, ptr, i32, i32, ptr, ptr, ptr, ptr, i32, i32, i32, float, float, ptr, i32, %struct.anon.8, %struct.dt_dev_chroma_t, %struct.anon.11, %struct.anon.12, %struct.anon.13, %struct.anon.14, %struct.anon.15, %struct.anon.16, ptr, ptr, %struct.dt_dev_viewport_t, %struct.dt_dev_viewport_t, i32, i32, i32, ptr, [8 x i8] }
%struct.dt_image_t = type { i32, i32, float, float, float, float, float, float, float, [64 x i8], [64 x i8], [128 x i8], [64 x i8], [64 x i8], [64 x i8], [64 x i8], i64, i32, %union.dt_image_correction_data_t, [64 x i8], [64 x i8], [64 x i8], [128 x i8], i32, [256 x i8], i32, i32, i32, i32, i32, i32, i32, i32, i32, i32, float, i32, i32, i32, i32, i32, i32, i64, i64, i64, i64, i32, [12 x i8], %struct.dt_iop_buffer_dsc_t, [9 x float], ptr, i32, i32, %struct.dt_image_raw_parameters_t, %struct.dt_image_geoloc_t, %struct._color_harmony_t, i16, [4 x i16], i32, i32, float, float, [4 x float], [4 x [3 x float]], [4 x float], ptr, ptr, i32, i32, [8 x i8] }
%union.dt_image_correction_data_t = type { %struct.anon.5 }
%struct.anon.5 = type { i32, float, [11 x float], [11 x float], [11 x float], [11 x float], [11 x float] }
%struct.dt_image_raw_parameters_t = type { i32 }
%struct.dt_image_geoloc_t = type { double, double, double }
%struct._color_harmony_t = type { i32, i32, i32 }
%struct.anon.8 = type { %struct.dt_dev_proxy_exposure_t, ptr, %struct.anon.9, %struct.anon.10 }
%struct.dt_dev_proxy_exposure_t = type { ptr, ptr, ptr, ptr }
%struct.anon.9 = type { ptr, ptr, ptr, ptr, ptr, ptr, ptr, ptr, ptr }
%struct.anon.10 = type { ptr, ptr, ptr, ptr, ptr }
%struct.dt_dev_chroma_t = type { ptr, ptr, [4 x double], [4 x double], [4 x double], i32 }
%struct.anon.11 = type { ptr, ptr, ptr }
%struct.anon.12 = type { ptr, ptr, i32, i32, float, float, i32 }
%struct.anon.13 = type { ptr, ptr, i32, i32, i32, float }
%struct.anon.14 = type { ptr }
%struct.anon.15 = type { ptr, i32 }
%struct.anon.16 = type { ptr, ptr, ptr }
%struct.dt_dev_viewport_t = type { ptr, i32, i32, i32, i32, i32, double, double, double, i32, i32, i32, float, float, float, ptr }
%struct.dt_iop_order_iccprofile_info_t = type { i32, [512 x i8], i32, [56 x i8], [4 x [4 x float]], [4 x [4 x float]], i32, [3 x ptr], [3 x ptr], [8 x i8], [3 x [3 x float]], [12 x i8], [3 x [3 x float]], i32, float, [36 x i8], [4 x [4 x float]], [4 x [4 x float]], [3 x [2 x float]], [2 x float], [32 x i8] }

; Function Attrs: nounwind uwtable
define i32 @dt_develop_blendif_init_masking_profile(ptr noundef %0, ptr noundef %1, i32 noundef %2) #0 {
  %4 = alloca i32, align 4
  %5 = alloca ptr, align 8
  %6 = alloca ptr, align 8
  %7 = alloca i32, align 4
  %8 = alloca [4 x [4 x float]], align 64
  %9 = alloca ptr, align 8
  %10 = alloca i32, align 4
  %11 = alloca i64, align 8
  %12 = alloca i64, align 8
  %13 = alloca float, align 4
  %14 = alloca i64, align 8
  store ptr %0, ptr %5, align 8, !tbaa !38
  store ptr %1, ptr %6, align 8, !tbaa !53
  store i32 %2, ptr %7, align 4, !tbaa !11
  call void @llvm.lifetime.start.p0(i64 64, ptr %8) #10
  call void @llvm.memcpy.p0.p0.i64(ptr align 64 %8, ptr align 64 @__const.dt_develop_blendif_init_masking_profile.M, i64 64, i1 false)
  call void @llvm.lifetime.start.p0(i64 8, ptr %9) #10
  %15 = load i32, ptr %7, align 4, !tbaa !11
  %16 = icmp eq i32 %15, 4
  br i1 %16, label %17, label %25

17:                                               ; preds = %3
  %18 = load ptr, ptr %5, align 8, !tbaa !38
  %19 = getelementptr inbounds nuw %struct.dt_dev_pixelpipe_iop_t, ptr %18, i32 0, i32 0
  %20 = load ptr, ptr %19, align 16, !tbaa !55
  %21 = load ptr, ptr %5, align 8, !tbaa !38
  %22 = getelementptr inbounds nuw %struct.dt_dev_pixelpipe_iop_t, ptr %21, i32 0, i32 1
  %23 = load ptr, ptr %22, align 8, !tbaa !56
  %24 = call ptr @dt_ioppr_get_pipe_current_profile_info(ptr noundef %20, ptr noundef %23)
  br label %37

25:                                               ; preds = %3
  %26 = load ptr, ptr %5, align 8, !tbaa !38
  %27 = getelementptr inbounds nuw %struct.dt_dev_pixelpipe_iop_t, ptr %26, i32 0, i32 0
  %28 = load ptr, ptr %27, align 16, !tbaa !55
  %29 = load ptr, ptr %5, align 8, !tbaa !38
  %30 = getelementptr inbounds nuw %struct.dt_dev_pixelpipe_iop_t, ptr %29, i32 0, i32 0
  %31 = load ptr, ptr %30, align 16, !tbaa !55
  %32 = getelementptr inbounds nuw %struct.dt_iop_module_t, ptr %31, i32 0, i32 77
  %33 = load ptr, ptr %32, align 8, !tbaa !57
  %34 = getelementptr inbounds nuw %struct.dt_develop_t, ptr %33, i32 0, i32 27
  %35 = load ptr, ptr %34, align 8, !tbaa !58
  %36 = call ptr @dt_ioppr_get_iop_work_profile_info(ptr noundef %28, ptr noundef %35)
  br label %37

37:                                               ; preds = %25, %17
  %38 = phi ptr [ %24, %17 ], [ %36, %25 ]
  store ptr %38, ptr %9, align 8, !tbaa !53
  %39 = load ptr, ptr %9, align 8, !tbaa !53
  %40 = icmp ne ptr %39, null
  br i1 %40, label %42, label %41

41:                                               ; preds = %37
  store i32 0, ptr %4, align 4
  store i32 1, ptr %10, align 4
  br label %101

42:                                               ; preds = %37
  %43 = load ptr, ptr %6, align 8, !tbaa !53
  %44 = load ptr, ptr %9, align 8, !tbaa !53
  call void @llvm.memcpy.p0.p0.i64(ptr align 64 %43, ptr align 64 %44, i64 1088, i1 false)
  call void @llvm.lifetime.start.p0(i64 8, ptr %11) #10
  store i64 0, ptr %11, align 8, !tbaa !52
  br label %45

45:                                               ; preds = %97, %42
  %46 = load i64, ptr %11, align 8, !tbaa !52
  %47 = icmp ult i64 %46, 3
  br i1 %47, label %49, label %48

48:                                               ; preds = %45
  store i32 2, ptr %10, align 4
  call void @llvm.lifetime.end.p0(i64 8, ptr %11) #10
  br label %100

49:                                               ; preds = %45
  call void @llvm.lifetime.start.p0(i64 8, ptr %12) #10
  store i64 0, ptr %12, align 8, !tbaa !52
  br label %50

50:                                               ; preds = %93, %49
  %51 = load i64, ptr %12, align 8, !tbaa !52
  %52 = icmp ult i64 %51, 3
  br i1 %52, label %54, label %53

53:                                               ; preds = %50
  store i32 5, ptr %10, align 4
  call void @llvm.lifetime.end.p0(i64 8, ptr %12) #10
  br label %96

54:                                               ; preds = %50
  call void @llvm.lifetime.start.p0(i64 4, ptr %13) #10
  store float 0.000000e+00, ptr %13, align 4, !tbaa !34
  call void @llvm.lifetime.start.p0(i64 8, ptr %14) #10
  store i64 0, ptr %14, align 8, !tbaa !52
  br label %55

55:                                               ; preds = %75, %54
  %56 = load i64, ptr %14, align 8, !tbaa !52
  %57 = icmp ult i64 %56, 3
  br i1 %57, label %59, label %58

58:                                               ; preds = %55
  store i32 8, ptr %10, align 4
  call void @llvm.lifetime.end.p0(i64 8, ptr %14) #10
  br label %78

59:                                               ; preds = %55
  %60 = load i64, ptr %11, align 8, !tbaa !52
  %61 = getelementptr inbounds nuw [4 x [4 x float]], ptr %8, i64 0, i64 %60
  %62 = load i64, ptr %14, align 8, !tbaa !52
  %63 = getelementptr inbounds nuw [4 x float], ptr %61, i64 0, i64 %62
  %64 = load float, ptr %63, align 4, !tbaa !34
  %65 = load ptr, ptr %9, align 8, !tbaa !53
  %66 = getelementptr inbounds nuw %struct.dt_iop_order_iccprofile_info_t, ptr %65, i32 0, i32 4
  %67 = load i64, ptr %14, align 8, !tbaa !52
  %68 = getelementptr inbounds nuw [4 x [4 x float]], ptr %66, i64 0, i64 %67
  %69 = load i64, ptr %12, align 8, !tbaa !52
  %70 = getelementptr inbounds nuw [4 x float], ptr %68, i64 0, i64 %69
  %71 = load float, ptr %70, align 4, !tbaa !34
  %72 = fmul reassoc nsz arcp contract afn float %64, %71
  %73 = load float, ptr %13, align 4, !tbaa !34
  %74 = fadd reassoc nsz arcp contract afn float %73, %72
  store float %74, ptr %13, align 4, !tbaa !34
  br label %75

75:                                               ; preds = %59
  %76 = load i64, ptr %14, align 8, !tbaa !52
  %77 = add i64 %76, 1
  store i64 %77, ptr %14, align 8, !tbaa !52
  br label %55

78:                                               ; preds = %58
  %79 = load float, ptr %13, align 4, !tbaa !34
  %80 = load ptr, ptr %6, align 8, !tbaa !53
  %81 = getelementptr inbounds nuw %struct.dt_iop_order_iccprofile_info_t, ptr %80, i32 0, i32 5
  %82 = load i64, ptr %11, align 8, !tbaa !52
  %83 = getelementptr inbounds nuw [4 x [4 x float]], ptr %81, i64 0, i64 %82
  %84 = load i64, ptr %12, align 8, !tbaa !52
  %85 = getelementptr inbounds nuw [4 x float], ptr %83, i64 0, i64 %84
  store float %79, ptr %85, align 4, !tbaa !34
  %86 = load float, ptr %13, align 4, !tbaa !34
  %87 = load ptr, ptr %6, align 8, !tbaa !53
  %88 = getelementptr inbounds nuw %struct.dt_iop_order_iccprofile_info_t, ptr %87, i32 0, i32 17
  %89 = load i64, ptr %12, align 8, !tbaa !52
  %90 = getelementptr inbounds nuw [4 x [4 x float]], ptr %88, i64 0, i64 %89
  %91 = load i64, ptr %11, align 8, !tbaa !52
  %92 = getelementptr inbounds nuw [4 x float], ptr %90, i64 0, i64 %91
  store float %86, ptr %92, align 4, !tbaa !34
  call void @llvm.lifetime.end.p0(i64 4, ptr %13) #10
  br label %93

93:                                               ; preds = %78
  %94 = load i64, ptr %12, align 8, !tbaa !52
  %95 = add i64 %94, 1
  store i64 %95, ptr %12, align 8, !tbaa !52
  br label %50

96:                                               ; preds = %53
  br label %97

97:                                               ; preds = %96
  %98 = load i64, ptr %11, align 8, !tbaa !52
  %99 = add i64 %98, 1
  store i64 %99, ptr %11, align 8, !tbaa !52
  br label %45

100:                                              ; preds = %48
  store i32 1, ptr %4, align 4
  store i32 1, ptr %10, align 4
  br label %101

101:                                              ; preds = %100, %41
  call void @llvm.lifetime.end.p0(i64 8, ptr %9) #10
  call void @llvm.lifetime.end.p0(i64 64, ptr %8) #10
  %102 = load i32, ptr %4, align 4
  ret i32 %102
}