; Function Attrs: nounwind uwtable
define range(i32 0, 2) i32 @dt_develop_blendif_init_masking_profile(ptr noundef readonly captures(none) %0, ptr noundef writeonly captures(none) %1, i32 noundef %2) local_unnamed_addr #0 {
  %4 = icmp eq i32 %2, 4
  %5 = load ptr, ptr %0, align 16, !tbaa !45
  br i1 %4, label %6, label %10

6:                                                ; preds = %3
  %7 = getelementptr inbounds nuw i8, ptr %0, i64 8
  %8 = load ptr, ptr %7, align 8, !tbaa !46
  %9 = tail call ptr @dt_ioppr_get_pipe_current_profile_info(ptr noundef %5, ptr noundef %8) #17
  br label %16

10:                                               ; preds = %3
  %11 = getelementptr inbounds nuw i8, ptr %5, i64 664
  %12 = load ptr, ptr %11, align 8, !tbaa !47
  %13 = getelementptr inbounds nuw i8, ptr %12, i64 2056
  %14 = load ptr, ptr %13, align 8, !tbaa !48
  %15 = tail call ptr @dt_ioppr_get_iop_work_profile_info(ptr noundef %5, ptr noundef %14) #17
  br label %16

16:                                               ; preds = %10, %6
  %17 = phi ptr [ %9, %6 ], [ %15, %10 ]
  %.not = icmp eq ptr %17, null
  br i1 %.not, label %.loopexit, label %18

18:                                               ; preds = %16
  tail call void @llvm.memcpy.p0.p0.i64(ptr noundef nonnull align 64 dereferenceable(1088) %1, ptr noundef nonnull align 64 dereferenceable(1088) %17, i64 1088, i1 false)
  %19 = getelementptr inbounds nuw i8, ptr %17, i64 576
  %20 = getelementptr inbounds nuw i8, ptr %1, i64 640
  %21 = getelementptr inbounds nuw i8, ptr %1, i64 960
  br label %.preheader33

.preheader33:                                     ; preds = %18, %22
  %.03037 = phi i64 [ 0, %18 ], [ %23, %22 ]
  br label %.preheader

.preheader:                                       ; preds = %.preheader33, %24
  %.02936 = phi i64 [ 0, %.preheader33 ], [ %27, %24 ]
  br label %28

22:                                               ; preds = %24
  %23 = add nuw nsw i64 %.03037, 1
  %exitcond39.not = icmp eq i64 %23, 3
  br i1 %exitcond39.not, label %.loopexit, label %.preheader33

24:                                               ; preds = %28
  %25 = getelementptr inbounds nuw [4 x [4 x float]], ptr %20, i64 0, i64 %.03037, i64 %.02936
  store float %34, ptr %25, align 4, !tbaa !31
  %26 = getelementptr inbounds nuw [4 x [4 x float]], ptr %21, i64 0, i64 %.02936, i64 %.03037
  store float %34, ptr %26, align 4, !tbaa !31
  %27 = add nuw nsw i64 %.02936, 1
  %exitcond38.not = icmp eq i64 %27, 3
  br i1 %exitcond38.not, label %22, label %.preheader

28:                                               ; preds = %.preheader, %28
  %.035 = phi i64 [ 0, %.preheader ], [ %35, %28 ]
  %.02834 = phi float [ 0.000000e+00, %.preheader ], [ %34, %28 ]
  %29 = getelementptr inbounds nuw [4 x [4 x float]], ptr @__const.dt_develop_blendif_init_masking_profile.M, i64 0, i64 %.03037, i64 %.035
  %30 = load float, ptr %29, align 4, !tbaa !31
  %31 = getelementptr inbounds nuw [4 x [4 x float]], ptr %19, i64 0, i64 %.035, i64 %.02936
  %32 = load float, ptr %31, align 4, !tbaa !31
  %33 = fmul reassoc nsz arcp contract afn float %32, %30
  %34 = fadd reassoc nsz arcp contract afn float %33, %.02834
  %35 = add nuw nsw i64 %.035, 1
  %exitcond.not = icmp eq i64 %35, 3
  br i1 %exitcond.not, label %24, label %28

.loopexit:                                        ; preds = %22, %16
  %.031 = phi i32 [ 0, %16 ], [ 1, %22 ]
  ret i32 %.031
}